target datalayout = "e-m:e-p270:32:32-p271:32:32-p272:64:64-i64:64-i128:128-f80:128-n8:16:32:64-S128"
target triple = "x86_64-pc-linux-gnu"

%"class.smt::theory_sls" = type { %"class.smt::theory.base", %"class.sls::smt_context", %"struct.smt::theory_sls::stats", %class.ref, ptr, i32, i8, i8, i32, i32, i32, i32, i32, i32, i32, i32, i8, i32, i32, i32, i32, i32, i32, i8, %class.statistics, %class.vector.5 }
%"class.smt::theory.base" = type <{ ptr, i32, [4 x i8], ptr, ptr, %class.ptr_vector, %class.svector, i32, i8 }>
%class.ptr_vector = type { %class.vector }
%class.vector = type { ptr }
%class.svector = type { %class.vector.0 }
%class.vector.0 = type { ptr }
%"class.sls::smt_context" = type { ptr }
%"struct.smt::theory_sls::stats" = type { i32, i32 }
%class.ref = type { ptr }
%class.statistics = type { %class.svector.1, %class.svector.3 }
%class.svector.1 = type { %class.vector.2 }
%class.vector.2 = type { ptr }
%class.svector.3 = type { %class.vector.4 }
%class.vector.4 = type { ptr }
%class.vector.5 = type { ptr }

; Function Attrs: mustprogress uwtable
define hidden noundef i32 @_ZN3smt10theory_sls14final_check_ehEv(ptr noundef nonnull align 8 dereferenceable(184) %0) unnamed_addr #6 align 2 {
  %2 = alloca i32, align 4
  %3 = alloca ptr, align 8
  store ptr %0, ptr %3, align 8, !tbaa !28
  %4 = load ptr, ptr %3, align 8
  %5 = getelementptr inbounds nuw %"class.smt::theory_sls", ptr %4, i32 0, i32 4
  %6 = load ptr, ptr %5, align 8, !tbaa !34
  %7 = icmp ne ptr %6, null
  br i1 %7, label %9, label %8

8:                                                ; preds = %1
  store i32 0, ptr %2, align 4
  br label %23

9:                                                ; preds = %1
  %10 = getelementptr inbounds nuw %"class.smt::theory_sls", ptr %4, i32 0, i32 18
  %11 = load i32, ptr %10, align 8, !tbaa !72
  %12 = add i32 %11, 1
  store i32 %12, ptr %10, align 8, !tbaa !72
  %13 = getelementptr inbounds nuw %"class.smt::theory_sls", ptr %4, i32 0, i32 17
  %14 = load i32, ptr %13, align 4, !tbaa !71
  %15 = getelementptr inbounds nuw %"class.smt::theory_sls", ptr %4, i32 0, i32 18
  %16 = load i32, ptr %15, align 8, !tbaa !72
  %17 = icmp ugt i32 %14, %16
  br i1 %17, label %18, label %19

18:                                               ; preds = %9
  store i32 0, ptr %2, align 4
  br label %23

19:                                               ; preds = %9
  %20 = getelementptr inbounds nuw %"class.smt::theory_sls", ptr %4, i32 0, i32 17
  %21 = load i32, ptr %20, align 4, !tbaa !71
  %22 = mul i32 %21, 2
  store i32 %22, ptr %20, align 4, !tbaa !71
  call void @_ZN3smt10theory_sls14run_guided_slsEv(ptr noundef nonnull align 8 dereferenceable(184) %4)
  store i32 0, ptr %2, align 4
  br label %23

23:                                               ; preds = %19, %18, %8
  %24 = load i32, ptr %2, align 4
  ret i32 %24
}