; Function Attrs: mustprogress uwtable
define hidden noundef i32 @_ZN3smt10theory_sls14final_check_ehEv(ptr noundef nonnull align 8 dereferenceable(184) %0) unnamed_addr #4 align 2 {
  %2 = getelementptr inbounds nuw i8, ptr %0, i64 80
  %3 = load ptr, ptr %2, align 8, !tbaa !522
  %.not = icmp eq ptr %3, null
  br i1 %.not, label %13, label %4

4:                                                ; preds = %1
  %5 = getelementptr inbounds nuw i8, ptr %0, i64 136
  %6 = load i32, ptr %5, align 8, !tbaa !571
  %7 = add i32 %6, 1
  store i32 %7, ptr %5, align 8, !tbaa !571
  %8 = getelementptr inbounds nuw i8, ptr %0, i64 132
  %9 = load i32, ptr %8, align 4, !tbaa !521
  %10 = icmp ugt i32 %9, %7
  br i1 %10, label %13, label %11

11:                                               ; preds = %4
  %12 = shl i32 %9, 1
  store i32 %12, ptr %8, align 4, !tbaa !521
  tail call void @_ZN3smt10theory_sls14run_guided_slsEv(ptr noundef nonnull align 8 dereferenceable(184) %0)
  br label %13

13:                                               ; preds = %4, %1, %11
  ret i32 0
}